target datalayout = "e-m:e-p270:32:32-p271:32:32-p272:64:64-i64:64-i128:128-f80:128-n8:16:32:64-S128"
target triple = "x86_64-pc-linux-gnu"

%struct.FunctionCallInfoBaseData = type { ptr, ptr, ptr, i32, i8, i16, [0 x %struct.NullableDatum] }
%struct.NullableDatum = type { i64, i8 }
%struct.rank_context = type { i64 }

; Function Attrs: inlinehint nounwind uwtable
define internal i64 @Int64GetDatum(i64 noundef %0) #3 {
  %2 = alloca i64, align 8
  store i64 %0, ptr %2, align 8
  %3 = load i64, ptr %2, align 8
  ret i64 %3
}

; Function Attrs: nounwind uwtable
define internal zeroext i1 @rank_up(ptr noundef %0) #0 {
  %2 = alloca ptr, align 8
  %3 = alloca i8, align 1
  %4 = alloca i64, align 8
  %5 = alloca ptr, align 8
  store ptr %0, ptr %2, align 8
  call void @llvm.lifetime.start.p0(i64 1, ptr %3) #5
  store i8 0, ptr %3, align 1
  call void @llvm.lifetime.start.p0(i64 8, ptr %4) #5
  %6 = load ptr, ptr %2, align 8
  %7 = call i64 @WinGetCurrentPosition(ptr noundef %6)
  store i64 %7, ptr %4, align 8
  call void @llvm.lifetime.start.p0(i64 8, ptr %5) #5
  %8 = load ptr, ptr %2, align 8
  %9 = call ptr @WinGetPartitionLocalMemory(ptr noundef %8, i64 noundef 8)
  store ptr %9, ptr %5, align 8
  %10 = load ptr, ptr %5, align 8
  %11 = getelementptr inbounds nuw %struct.rank_context, ptr %10, i32 0, i32 0
  %12 = load i64, ptr %11, align 8
  %13 = icmp eq i64 %12, 0
  br i1 %13, label %14, label %17

14:                                               ; preds = %1
  %15 = load ptr, ptr %5, align 8
  %16 = getelementptr inbounds nuw %struct.rank_context, ptr %15, i32 0, i32 0
  store i64 1, ptr %16, align 8
  br label %25

17:                                               ; preds = %1
  %18 = load ptr, ptr %2, align 8
  %19 = load i64, ptr %4, align 8
  %20 = sub i64 %19, 1
  %21 = load i64, ptr %4, align 8
  %22 = call zeroext i1 @WinRowsArePeers(ptr noundef %18, i64 noundef %20, i64 noundef %21)
  br i1 %22, label %24, label %23

23:                                               ; preds = %17
  store i8 1, ptr %3, align 1
  br label %24

24:                                               ; preds = %23, %17
  br label %25

25:                                               ; preds = %24, %14
  %26 = load ptr, ptr %2, align 8
  %27 = load i64, ptr %4, align 8
  call void @WinSetMarkPosition(ptr noundef %26, i64 noundef %27)
  %28 = load i8, ptr %3, align 1, !range !4, !noundef !5
  %29 = trunc i8 %28 to i1
  call void @llvm.lifetime.end.p0(i64 8, ptr %5) #5
  call void @llvm.lifetime.end.p0(i64 8, ptr %4) #5
  call void @llvm.lifetime.end.p0(i64 1, ptr %3) #5
  ret i1 %29
}

; Function Attrs: nounwind uwtable
define dso_local i64 @window_rank(ptr noundef %0) #0 {
  %2 = alloca ptr, align 8
  %3 = alloca ptr, align 8
  %4 = alloca ptr, align 8
  %5 = alloca i8, align 1
  store ptr %0, ptr %2, align 8
  call void @llvm.lifetime.start.p0(i64 8, ptr %3) #5
  %6 = load ptr, ptr %2, align 8
  %7 = getelementptr inbounds nuw %struct.FunctionCallInfoBaseData, ptr %6, i32 0, i32 1
  %8 = load ptr, ptr %7, align 8
  store ptr %8, ptr %3, align 8
  call void @llvm.lifetime.start.p0(i64 8, ptr %4) #5
  call void @llvm.lifetime.start.p0(i64 1, ptr %5) #5
  %9 = load ptr, ptr %3, align 8
  %10 = call zeroext i1 @rank_up(ptr noundef %9)
  %11 = zext i1 %10 to i8
  store i8 %11, ptr %5, align 1
  %12 = load ptr, ptr %3, align 8
  %13 = call ptr @WinGetPartitionLocalMemory(ptr noundef %12, i64 noundef 8)
  store ptr %13, ptr %4, align 8
  %14 = load i8, ptr %5, align 1, !range !4, !noundef !5
  %15 = trunc i8 %14 to i1
  br i1 %15, label %16, label %22

16:                                               ; preds = %1
  %17 = load ptr, ptr %3, align 8
  %18 = call i64 @WinGetCurrentPosition(ptr noundef %17)
  %19 = add i64 %18, 1
  %20 = load ptr, ptr %4, align 8
  %21 = getelementptr inbounds nuw %struct.rank_context, ptr %20, i32 0, i32 0
  store i64 %19, ptr %21, align 8
  br label %22

22:                                               ; preds = %16, %1
  %23 = load ptr, ptr %4, align 8
  %24 = getelementptr inbounds nuw %struct.rank_context, ptr %23, i32 0, i32 0
  %25 = load i64, ptr %24, align 8
  %26 = call i64 @Int64GetDatum(i64 noundef %25)
  call void @llvm.lifetime.end.p0(i64 1, ptr %5) #5
  call void @llvm.lifetime.end.p0(i64 8, ptr %4) #5
  call void @llvm.lifetime.end.p0(i64 8, ptr %3) #5
  ret i64 %26
}