; Function Attrs: nounwind uwtable
define dso_local i64 @window_rank(ptr noundef readonly captures(none) %0) local_unnamed_addr #0 {
  %2 = getelementptr inbounds nuw i8, ptr %0, i64 8
  %3 = load ptr, ptr %2, align 8
  %4 = tail call i64 @WinGetCurrentPosition(ptr noundef %3) #6
  %5 = tail call ptr @WinGetPartitionLocalMemory(ptr noundef %3, i64 noundef 8) #6
  %6 = load i64, ptr %5, align 8
  %7 = icmp eq i64 %6, 0
  br i1 %7, label %8, label %9

8:                                                ; preds = %1
  store i64 1, ptr %5, align 8
  br label %rank_up.exit

9:                                                ; preds = %1
  %10 = add i64 %4, -1
  %11 = tail call zeroext i1 @WinRowsArePeers(ptr noundef %3, i64 noundef %10, i64 noundef %4) #6
  %not..i = xor i1 %11, true
  br label %rank_up.exit

rank_up.exit:                                     ; preds = %8, %9
  %.0.i = phi i1 [ false, %8 ], [ %not..i, %9 ]
  tail call void @WinSetMarkPosition(ptr noundef %3, i64 noundef %4) #6
  %12 = tail call ptr @WinGetPartitionLocalMemory(ptr noundef %3, i64 noundef 8) #6
  br i1 %.0.i, label %13, label %rank_up.exit._crit_edge

rank_up.exit._crit_edge:                          ; preds = %rank_up.exit
  %.pre = load i64, ptr %12, align 8
  br label %16

13:                                               ; preds = %rank_up.exit
  %14 = tail call i64 @WinGetCurrentPosition(ptr noundef %3) #6
  %15 = add i64 %14, 1
  store i64 %15, ptr %12, align 8
  br label %16

16:                                               ; preds = %rank_up.exit._crit_edge, %13
  %17 = phi i64 [ %.pre, %rank_up.exit._crit_edge ], [ %15, %13 ]
  ret i64 %17
}